target datalayout = "e-m:e-p270:32:32-p271:32:32-p272:64:64-i64:64-i128:128-f80:128-n8:16:32:64-S128"
target triple = "x86_64-pc-linux-gnu"

%struct.CopyStruct_ = type { [1048575 x %struct.CopyFixup], ptr, i8, i8, i8 }
%struct.CopyFixup = type { ptr, ptr }

@copy_struct = internal global %struct.CopyStruct_ zeroinitializer, align 8

; Function Attrs: nounwind uwtable
define dso_local void @copy_end() #0 {
  store i8 0, ptr getelementptr inbounds (%struct.CopyStruct_, ptr @copy_struct, i32 0, i32 3), align 1
  ret void
}

; Function Attrs: nounwind uwtable
define dso_local void @copy_begin() #0 {
  store ptr @copy_struct, ptr getelementptr inbounds (%struct.CopyStruct_, ptr @copy_struct, i32 0, i32 1), align 8
  store i8 1, ptr getelementptr inbounds (%struct.CopyStruct_, ptr @copy_struct, i32 0, i32 3), align 1
  store i8 0, ptr getelementptr inbounds (%struct.CopyStruct_, ptr @copy_struct, i32 0, i32 2), align 8
  ret void
}

; Function Attrs: nounwind uwtable
define dso_local ptr @copy_lambda_deep(ptr noundef %0) #0 {
  %2 = alloca ptr, align 8
  %3 = alloca i8, align 1
  %4 = alloca ptr, align 8
  store ptr %0, ptr %2, align 8
  %5 = load i8, ptr getelementptr inbounds (%struct.CopyStruct_, ptr @copy_struct, i32 0, i32 4), align 2
  %6 = trunc i8 %5 to i1
  %7 = zext i1 %6 to i8
  store i8 %7, ptr %3, align 1
  store i8 1, ptr getelementptr inbounds (%struct.CopyStruct_, ptr @copy_struct, i32 0, i32 4), align 2
  call void @copy_begin()
  %8 = load ptr, ptr %2, align 8
  %9 = call ptr @copy_decl(ptr noundef @copy_struct, ptr noundef %8)
  store ptr %9, ptr %4, align 8
  call void @copy_end()
  %10 = load i8, ptr %3, align 1
  %11 = trunc i8 %10 to i1
  %12 = zext i1 %11 to i8
  store i8 %12, ptr getelementptr inbounds (%struct.CopyStruct_, ptr @copy_struct, i32 0, i32 4), align 2
  %13 = load ptr, ptr %4, align 8
  ret ptr %13
}