; Function Attrs: nounwind uwtable
define dso_local noundef ptr @copy_lambda_deep(ptr noundef %0) local_unnamed_addr #0 {
  %2 = load i8, ptr getelementptr inbounds (%struct.CopyStruct_, ptr @copy_struct, i64 0, i32 4), align 2
  %3 = and i8 %2, 1
  store i8 1, ptr getelementptr inbounds (%struct.CopyStruct_, ptr @copy_struct, i64 0, i32 4), align 2
  store ptr @copy_struct, ptr getelementptr inbounds (%struct.CopyStruct_, ptr @copy_struct, i64 0, i32 1), align 8
  store i8 1, ptr getelementptr inbounds (%struct.CopyStruct_, ptr @copy_struct, i64 0, i32 3), align 1
  store i8 0, ptr getelementptr inbounds (%struct.CopyStruct_, ptr @copy_struct, i64 0, i32 2), align 8
  %4 = tail call fastcc ptr @copy_decl(ptr noundef nonnull @copy_struct, ptr noundef %0)
  store i8 0, ptr getelementptr inbounds (%struct.CopyStruct_, ptr @copy_struct, i64 0, i32 3), align 1
  store i8 %3, ptr getelementptr inbounds (%struct.CopyStruct_, ptr @copy_struct, i64 0, i32 4), align 2
  ret ptr %4
}